; Function Attrs: mustprogress uwtable
define hidden void @_ZN2cv3hal12cpu_baseline12magnitude64fEPKdS3_Pdi(ptr noundef readonly captures(none) %0, ptr noundef readonly captures(none) %1, ptr noundef writeonly captures(none) %2, i32 noundef %3) local_unnamed_addr #0 personality ptr @__gxx_personality_v0 {
  %5 = alloca %"class.cv::utils::trace::details::Region", align 8
  call void @llvm.lifetime.start.p0(i64 16, ptr nonnull %5) #12
  call void @_ZN2cv5utils5trace7details6RegionC1ERKNS3_21LocationStaticStorageE(ptr noundef nonnull align 8 dereferenceable(12) %5, ptr noundef nonnull align 8 dereferenceable(32) @_ZZN2cv3hal12cpu_baseline12magnitude64fEPKdS3_PdiE25__cv_trace_location_fn305)
  %6 = icmp sgt i32 %3, 0
  br i1 %6, label %.lr.ph.preheader, label %._crit_edge

.lr.ph.preheader:                                 ; preds = %4
  %wide.trip.count = zext nneg i32 %3 to i64
  br label %.lr.ph

.lr.ph:                                           ; preds = %.lr.ph.preheader, %.lr.ph
  %indvars.iv = phi i64 [ 0, %.lr.ph.preheader ], [ %indvars.iv.next, %.lr.ph ]
  %7 = getelementptr inbounds nuw double, ptr %0, i64 %indvars.iv
  %8 = load double, ptr %7, align 8, !tbaa !14
  %9 = getelementptr inbounds nuw double, ptr %1, i64 %indvars.iv
  %10 = load double, ptr %9, align 8, !tbaa !14
  %11 = fmul double %10, %10
  %12 = call double @llvm.fmuladd.f64(double %8, double %8, double %11)
  %sqrt = call double @llvm.sqrt.f64(double %12)
  %13 = getelementptr inbounds nuw double, ptr %2, i64 %indvars.iv
  store double %sqrt, ptr %13, align 8, !tbaa !14
  %indvars.iv.next = add nuw nsw i64 %indvars.iv, 1
  %exitcond.not = icmp eq i64 %indvars.iv.next, %wide.trip.count
  br i1 %exitcond.not, label %._crit_edge, label %.lr.ph, !llvm.loop !25

._crit_edge:                                      ; preds = %.lr.ph, %4
  %14 = getelementptr inbounds nuw i8, ptr %5, i64 8
  %15 = load i32, ptr %14, align 8, !tbaa !9
  %.not.i = icmp eq i32 %15, 0
  br i1 %.not.i, label %_ZN2cv5utils5trace7details6RegionD2Ev.exit, label %16

16:                                               ; preds = %._crit_edge
  invoke void @_ZN2cv5utils5trace7details6Region7destroyEv(ptr noundef nonnull align 8 dereferenceable(12) %5)
          to label %_ZN2cv5utils5trace7details6RegionD2Ev.exit unwind label %17

17:                                               ; preds = %16
  %18 = landingpad { ptr, i32 }
          catch ptr null
  %19 = extractvalue { ptr, i32 } %18, 0
  call void @__clang_call_terminate(ptr %19) #13
  unreachable

_ZN2cv5utils5trace7details6RegionD2Ev.exit:       ; preds = %._crit_edge, %16
  call void @llvm.lifetime.end.p0(i64 16, ptr nonnull %5) #12
  ret void
}